; Function Attrs: mustprogress nounwind uwtable
define dso_local void @_ZNK4llvm16ConstraintSystem15getVarNamesListB5cxx11Ev(ptr dead_on_unwind noalias writable sret(%"class.llvm::SmallVector.5") align 8 %0, ptr noundef nonnull readonly align 8 captures(none) dereferenceable(624) %1) local_unnamed_addr #0 align 2 {
  %3 = alloca %"class.std::__cxx11::basic_string", align 8
  %4 = alloca %"class.std::allocator", align 1
  %5 = getelementptr inbounds nuw i8, ptr %1, i64 608
  %6 = load i32, ptr %5, align 8
  %7 = zext i32 %6 to i64
  call void @_ZNSaIcEC1Ev(ptr noundef nonnull align 1 dereferenceable(1) %4) #10
  %8 = call noundef ptr @_ZNSt7__cxx1112basic_stringIcSt11char_traitsIcESaIcEE13_M_local_dataEv(ptr noundef nonnull align 8 dereferenceable(32) %3) #10
  call void @_ZNSt7__cxx1112basic_stringIcSt11char_traitsIcESaIcEE12_Alloc_hiderC1EPcRKS3_(ptr noundef nonnull align 8 dereferenceable(32) %3, ptr noundef %8, ptr noundef nonnull align 1 dereferenceable(1) %4) #10
  call void @_ZNSt7__cxx1112basic_stringIcSt11char_traitsIcESaIcEE12_M_constructIPKcEEvT_S8_St20forward_iterator_tag(ptr noundef nonnull align 8 dereferenceable(32) %3, ptr noundef nonnull @.str, ptr noundef nonnull @.str)
  %9 = getelementptr inbounds nuw i8, ptr %0, i64 16
  call void @_ZN4llvm15SmallVectorBaseIjEC2EPvm(ptr noundef nonnull align 8 dereferenceable(48) %0, ptr noundef nonnull %9, i64 noundef 1) #10
  call void @_ZN4llvm15SmallVectorImplINSt7__cxx1112basic_stringIcSt11char_traitsIcESaIcEEEE6assignEmRKS6_(ptr noundef nonnull align 8 dereferenceable(48) %0, i64 noundef %7, ptr noundef nonnull align 8 dereferenceable(32) %3)
  call void @_ZNSt7__cxx1112basic_stringIcSt11char_traitsIcESaIcEED1Ev(ptr noundef nonnull align 8 dereferenceable(32) %3) #10
  call void @_ZNSaIcED1Ev(ptr noundef nonnull align 1 dereferenceable(1) %4) #10
  ret void
}